target datalayout = "e-m:e-p270:32:32-p271:32:32-p272:64:64-i64:64-i128:128-f80:128-n8:16:32:64-S128"
target triple = "x86_64-pc-linux-gnu"

%"struct.duckdb_yyjson::yyjson_mut_val" = type { i64, %"union.duckdb_yyjson::yyjson_val_uni", ptr }
%"union.duckdb_yyjson::yyjson_val_uni" = type { i64 }
%"struct.duckdb_yyjson::yyjson_val" = type { i64, %"union.duckdb_yyjson::yyjson_val_uni" }

; Function Attrs: alwaysinline mustprogress nounwind uwtable
define internal noundef i64 @_ZN13duckdb_yyjsonL21unsafe_yyjson_get_lenEPv(ptr noundef %0) #7 {
  %2 = alloca ptr, align 8
  store ptr %0, ptr %2, align 8, !tbaa !8
  %3 = load ptr, ptr %2, align 8, !tbaa !8
  %4 = getelementptr inbounds nuw %"struct.duckdb_yyjson::yyjson_val", ptr %3, i32 0, i32 0
  %5 = load i64, ptr %4, align 8, !tbaa !88
  %6 = lshr i64 %5, 8
  ret i64 %6
}

; Function Attrs: alwaysinline mustprogress nounwind uwtable
define internal noundef zeroext i8 @_ZN13duckdb_yyjsonL22unsafe_yyjson_get_typeEPv(ptr noundef %0) #7 {
  %2 = alloca ptr, align 8
  %3 = alloca i8, align 1
  store ptr %0, ptr %2, align 8, !tbaa !8
  call void @llvm.lifetime.start.p0(i64 1, ptr %3) #15
  %4 = load ptr, ptr %2, align 8, !tbaa !8
  %5 = getelementptr inbounds nuw %"struct.duckdb_yyjson::yyjson_val", ptr %4, i32 0, i32 0
  %6 = load i64, ptr %5, align 8, !tbaa !88
  %7 = trunc i64 %6 to i8
  store i8 %7, ptr %3, align 1, !tbaa !87
  %8 = load i8, ptr %3, align 1, !tbaa !87
  %9 = zext i8 %8 to i32
  %10 = and i32 %9, 7
  %11 = trunc i32 %10 to i8
  call void @llvm.lifetime.end.p0(i64 1, ptr %3) #15
  ret i8 %11
}

; Function Attrs: mustprogress uwtable
define internal noundef i64 @_ZN13duckdb_yyjsonL16yyjson_imut_copyEPPNS_10yyjson_valEPPcPNS_14yyjson_mut_valE(ptr noundef %0, ptr noundef %1, ptr noundef %2) #1 {
  %4 = alloca i64, align 8
  %5 = alloca ptr, align 8
  %6 = alloca ptr, align 8
  %7 = alloca ptr, align 8
  %8 = alloca ptr, align 8
  %9 = alloca i8, align 1
  %10 = alloca ptr, align 8
  %11 = alloca i64, align 8
  %12 = alloca i64, align 8
  %13 = alloca i64, align 8
  %14 = alloca i32, align 4
  %15 = alloca ptr, align 8
  %16 = alloca i64, align 8
  store ptr %0, ptr %5, align 8, !tbaa !110
  store ptr %1, ptr %6, align 8, !tbaa !112
  store ptr %2, ptr %7, align 8, !tbaa !85
  call void @llvm.lifetime.start.p0(i64 8, ptr %8) #15
  %17 = load ptr, ptr %5, align 8, !tbaa !110
  %18 = load ptr, ptr %17, align 8, !tbaa !86
  store ptr %18, ptr %8, align 8, !tbaa !86
  call void @llvm.lifetime.start.p0(i64 1, ptr %9) #15
  %19 = load ptr, ptr %7, align 8, !tbaa !85
  %20 = call noundef zeroext i8 @_ZN13duckdb_yyjsonL22unsafe_yyjson_get_typeEPv(ptr noundef %19)
  store i8 %20, ptr %9, align 1, !tbaa !87
  %21 = load i8, ptr %9, align 1, !tbaa !87
  %22 = zext i8 %21 to i32
  %23 = icmp eq i32 %22, 6
  br i1 %23, label %28, label %24

24:                                               ; preds = %3
  %25 = load i8, ptr %9, align 1, !tbaa !87
  %26 = zext i8 %25 to i32
  %27 = icmp eq i32 %26, 7
  br i1 %27, label %28, label %89

28:                                               ; preds = %24, %3
  call void @llvm.lifetime.start.p0(i64 8, ptr %10) #15
  %29 = load ptr, ptr %7, align 8, !tbaa !85
  %30 = getelementptr inbounds nuw %"struct.duckdb_yyjson::yyjson_mut_val", ptr %29, i32 0, i32 1
  %31 = load ptr, ptr %30, align 8, !tbaa !87
  store ptr %31, ptr %10, align 8, !tbaa !85
  call void @llvm.lifetime.start.p0(i64 8, ptr %11) #15
  %32 = load ptr, ptr %7, align 8, !tbaa !85
  %33 = call noundef i64 @_ZN13duckdb_yyjsonL21unsafe_yyjson_get_lenEPv(ptr noundef %32)
  store i64 %33, ptr %11, align 8, !tbaa !9
  call void @llvm.lifetime.start.p0(i64 8, ptr %12) #15
  call void @llvm.lifetime.start.p0(i64 8, ptr %13) #15
  store i64 1, ptr %13, align 8, !tbaa !9
  %34 = load i8, ptr %9, align 1, !tbaa !87
  %35 = zext i8 %34 to i32
  %36 = icmp eq i32 %35, 7
  br i1 %36, label %37, label %49

37:                                               ; preds = %28
  %38 = load i64, ptr %11, align 8, !tbaa !9
  %39 = icmp ne i64 %38, 0
  br i1 %39, label %40, label %46

40:                                               ; preds = %37
  %41 = load ptr, ptr %10, align 8, !tbaa !85
  %42 = getelementptr inbounds nuw %"struct.duckdb_yyjson::yyjson_mut_val", ptr %41, i32 0, i32 2
  %43 = load ptr, ptr %42, align 8, !tbaa !93
  %44 = getelementptr inbounds nuw %"struct.duckdb_yyjson::yyjson_mut_val", ptr %43, i32 0, i32 2
  %45 = load ptr, ptr %44, align 8, !tbaa !93
  store ptr %45, ptr %10, align 8, !tbaa !85
  br label %46

46:                                               ; preds = %40, %37
  %47 = load i64, ptr %11, align 8, !tbaa !9
  %48 = shl i64 %47, 1
  store i64 %48, ptr %11, align 8, !tbaa !9
  br label %57

49:                                               ; preds = %28
  %50 = load i64, ptr %11, align 8, !tbaa !9
  %51 = icmp ne i64 %50, 0
  br i1 %51, label %52, label %56

52:                                               ; preds = %49
  %53 = load ptr, ptr %10, align 8, !tbaa !85
  %54 = getelementptr inbounds nuw %"struct.duckdb_yyjson::yyjson_mut_val", ptr %53, i32 0, i32 2
  %55 = load ptr, ptr %54, align 8, !tbaa !93
  store ptr %55, ptr %10, align 8, !tbaa !85
  br label %56

56:                                               ; preds = %52, %49
  br label %57

57:                                               ; preds = %56, %46
  %58 = load ptr, ptr %8, align 8, !tbaa !86
  %59 = getelementptr inbounds %"struct.duckdb_yyjson::yyjson_val", ptr %58, i64 1
  %60 = load ptr, ptr %5, align 8, !tbaa !110
  store ptr %59, ptr %60, align 8, !tbaa !86
  store i64 0, ptr %12, align 8, !tbaa !9
  br label %61

61:                                               ; preds = %75, %57
  %62 = load i64, ptr %12, align 8, !tbaa !9
  %63 = load i64, ptr %11, align 8, !tbaa !9
  %64 = icmp ult i64 %62, %63
  br i1 %64, label %65, label %78

65:                                               ; preds = %61
  %66 = load ptr, ptr %5, align 8, !tbaa !110
  %67 = load ptr, ptr %6, align 8, !tbaa !112
  %68 = load ptr, ptr %10, align 8, !tbaa !85
  %69 = call noundef i64 @_ZN13duckdb_yyjsonL16yyjson_imut_copyEPPNS_10yyjson_valEPPcPNS_14yyjson_mut_valE(ptr noundef %66, ptr noundef %67, ptr noundef %68)
  %70 = load i64, ptr %13, align 8, !tbaa !9
  %71 = add i64 %70, %69
  store i64 %71, ptr %13, align 8, !tbaa !9
  %72 = load ptr, ptr %10, align 8, !tbaa !85
  %73 = getelementptr inbounds nuw %"struct.duckdb_yyjson::yyjson_mut_val", ptr %72, i32 0, i32 2
  %74 = load ptr, ptr %73, align 8, !tbaa !93
  store ptr %74, ptr %10, align 8, !tbaa !85
  br label %75

75:                                               ; preds = %65
  %76 = load i64, ptr %12, align 8, !tbaa !9
  %77 = add i64 %76, 1
  store i64 %77, ptr %12, align 8, !tbaa !9
  br label %61, !llvm.loop !114

78:                                               ; preds = %61
  %79 = load ptr, ptr %7, align 8, !tbaa !85
  %80 = getelementptr inbounds nuw %"struct.duckdb_yyjson::yyjson_mut_val", ptr %79, i32 0, i32 0
  %81 = load i64, ptr %80, align 8, !tbaa !90
  %82 = load ptr, ptr %8, align 8, !tbaa !86
  %83 = getelementptr inbounds nuw %"struct.duckdb_yyjson::yyjson_val", ptr %82, i32 0, i32 0
  store i64 %81, ptr %83, align 8, !tbaa !88
  %84 = load i64, ptr %13, align 8, !tbaa !9
  %85 = mul i64 %84, 16
  %86 = load ptr, ptr %8, align 8, !tbaa !86
  %87 = getelementptr inbounds nuw %"struct.duckdb_yyjson::yyjson_val", ptr %86, i32 0, i32 1
  store i64 %85, ptr %87, align 8, !tbaa !87
  %88 = load i64, ptr %13, align 8, !tbaa !9
  store i64 %88, ptr %4, align 8
  store i32 1, ptr %14, align 4
  call void @llvm.lifetime.end.p0(i64 8, ptr %13) #15
  call void @llvm.lifetime.end.p0(i64 8, ptr %12) #15
  call void @llvm.lifetime.end.p0(i64 8, ptr %11) #15
  call void @llvm.lifetime.end.p0(i64 8, ptr %10) #15
  br label %139

89:                                               ; preds = %24
  %90 = load i8, ptr %9, align 1, !tbaa !87
  %91 = zext i8 %90 to i32
  %92 = icmp eq i32 %91, 5
  br i1 %92, label %97, label %93

93:                                               ; preds = %89
  %94 = load i8, ptr %9, align 1, !tbaa !87
  %95 = zext i8 %94 to i32
  %96 = icmp eq i32 %95, 1
  br i1 %96, label %97, label %126

97:                                               ; preds = %93, %89
  call void @llvm.lifetime.start.p0(i64 8, ptr %15) #15
  %98 = load ptr, ptr %6, align 8, !tbaa !112
  %99 = load ptr, ptr %98, align 8, !tbaa !92
  store ptr %99, ptr %15, align 8, !tbaa !92
  call void @llvm.lifetime.start.p0(i64 8, ptr %16) #15
  %100 = load ptr, ptr %7, align 8, !tbaa !85
  %101 = call noundef i64 @_ZN13duckdb_yyjsonL21unsafe_yyjson_get_lenEPv(ptr noundef %100)
  store i64 %101, ptr %16, align 8, !tbaa !9
  %102 = load ptr, ptr %15, align 8, !tbaa !92
  %103 = load ptr, ptr %7, align 8, !tbaa !85
  %104 = getelementptr inbounds nuw %"struct.duckdb_yyjson::yyjson_mut_val", ptr %103, i32 0, i32 1
  %105 = load ptr, ptr %104, align 8, !tbaa !87
  %106 = load i64, ptr %16, align 8, !tbaa !9
  call void @llvm.memcpy.p0.p0.i64(ptr align 1 %102, ptr align 1 %105, i64 %106, i1 false)
  %107 = load ptr, ptr %15, align 8, !tbaa !92
  %108 = load i64, ptr %16, align 8, !tbaa !9
  %109 = getelementptr inbounds nuw i8, ptr %107, i64 %108
  store i8 0, ptr %109, align 1, !tbaa !87
  %110 = load ptr, ptr %7, align 8, !tbaa !85
  %111 = getelementptr inbounds nuw %"struct.duckdb_yyjson::yyjson_mut_val", ptr %110, i32 0, i32 0
  %112 = load i64, ptr %111, align 8, !tbaa !90
  %113 = load ptr, ptr %8, align 8, !tbaa !86
  %114 = getelementptr inbounds nuw %"struct.duckdb_yyjson::yyjson_val", ptr %113, i32 0, i32 0
  store i64 %112, ptr %114, align 8, !tbaa !88
  %115 = load ptr, ptr %15, align 8, !tbaa !92
  %116 = load ptr, ptr %8, align 8, !tbaa !86
  %117 = getelementptr inbounds nuw %"struct.duckdb_yyjson::yyjson_val", ptr %116, i32 0, i32 1
  store ptr %115, ptr %117, align 8, !tbaa !87
  %118 = load ptr, ptr %8, align 8, !tbaa !86
  %119 = getelementptr inbounds %"struct.duckdb_yyjson::yyjson_val", ptr %118, i64 1
  %120 = load ptr, ptr %5, align 8, !tbaa !110
  store ptr %119, ptr %120, align 8, !tbaa !86
  %121 = load ptr, ptr %15, align 8, !tbaa !92
  %122 = load i64, ptr %16, align 8, !tbaa !9
  %123 = getelementptr inbounds nuw i8, ptr %121, i64 %122
  %124 = getelementptr inbounds i8, ptr %123, i64 1
  %125 = load ptr, ptr %6, align 8, !tbaa !112
  store ptr %124, ptr %125, align 8, !tbaa !92
  store i64 1, ptr %4, align 8
  store i32 1, ptr %14, align 4
  call void @llvm.lifetime.end.p0(i64 8, ptr %16) #15
  call void @llvm.lifetime.end.p0(i64 8, ptr %15) #15
  br label %139

126:                                              ; preds = %93
  %127 = load ptr, ptr %7, align 8, !tbaa !85
  %128 = getelementptr inbounds nuw %"struct.duckdb_yyjson::yyjson_mut_val", ptr %127, i32 0, i32 0
  %129 = load i64, ptr %128, align 8, !tbaa !90
  %130 = load ptr, ptr %8, align 8, !tbaa !86
  %131 = getelementptr inbounds nuw %"struct.duckdb_yyjson::yyjson_val", ptr %130, i32 0, i32 0
  store i64 %129, ptr %131, align 8, !tbaa !88
  %132 = load ptr, ptr %7, align 8, !tbaa !85
  %133 = getelementptr inbounds nuw %"struct.duckdb_yyjson::yyjson_mut_val", ptr %132, i32 0, i32 1
  %134 = load ptr, ptr %8, align 8, !tbaa !86
  %135 = getelementptr inbounds nuw %"struct.duckdb_yyjson::yyjson_val", ptr %134, i32 0, i32 1
  call void @llvm.memcpy.p0.p0.i64(ptr align 8 %135, ptr align 8 %133, i64 8, i1 false), !tbaa.struct !103
  %136 = load ptr, ptr %8, align 8, !tbaa !86
  %137 = getelementptr inbounds %"struct.duckdb_yyjson::yyjson_val", ptr %136, i64 1
  %138 = load ptr, ptr %5, align 8, !tbaa !110
  store ptr %137, ptr %138, align 8, !tbaa !86
  store i64 1, ptr %4, align 8
  store i32 1, ptr %14, align 4
  br label %139

139:                                              ; preds = %126, %97, %78
  call void @llvm.lifetime.end.p0(i64 1, ptr %9) #15
  call void @llvm.lifetime.end.p0(i64 8, ptr %8) #15
  %140 = load i64, ptr %4, align 8
  ret i64 %140
}