; Function Attrs: mustprogress nofree nosync nounwind memory(readwrite, inaccessiblemem: none) uwtable
define internal fastcc noundef i64 @_ZN13duckdb_yyjsonL16yyjson_imut_copyEPPNS_10yyjson_valEPPcPNS_14yyjson_mut_valE(ptr noundef nonnull captures(none) %0, ptr noundef nonnull captures(none) %1, ptr noundef readonly captures(none) %2) unnamed_addr #12 {
  %4 = load ptr, ptr %0, align 8, !tbaa !87
  %5 = load i64, ptr %2, align 8, !tbaa !73
  %6 = trunc i64 %5 to i8
  %7 = and i8 %6, 6
  %or.cond = icmp eq i8 %7, 6
  br i1 %or.cond, label %8, label %37

8:                                                ; preds = %3
  %9 = and i8 %6, 7
  %10 = icmp eq i8 %9, 7
  %11 = getelementptr inbounds nuw i8, ptr %2, i64 8
  %12 = load ptr, ptr %11, align 8, !tbaa !75
  %13 = lshr i64 %5, 8
  %.not63 = icmp ult i64 %5, 256
  br i1 %10, label %14, label %22

14:                                               ; preds = %8
  br i1 %.not63, label %20, label %15

15:                                               ; preds = %14
  %16 = getelementptr inbounds nuw i8, ptr %12, i64 16
  %17 = load ptr, ptr %16, align 8, !tbaa !79
  %18 = getelementptr inbounds nuw i8, ptr %17, i64 16
  %19 = load ptr, ptr %18, align 8, !tbaa !79
  br label %20

20:                                               ; preds = %15, %14
  %.056 = phi ptr [ %19, %15 ], [ %12, %14 ]
  %21 = shl nuw nsw i64 %13, 1
  br label %27

22:                                               ; preds = %8
  br i1 %.not63, label %.thread, label %24

.thread:                                          ; preds = %22
  %23 = getelementptr inbounds nuw i8, ptr %4, i64 16
  store ptr %23, ptr %0, align 8, !tbaa !87
  br label %._crit_edge

24:                                               ; preds = %22
  %25 = getelementptr inbounds nuw i8, ptr %12, i64 16
  %26 = load ptr, ptr %25, align 8, !tbaa !79
  br label %27

27:                                               ; preds = %24, %20
  %.059 = phi i64 [ %21, %20 ], [ %13, %24 ]
  %.1 = phi ptr [ %.056, %20 ], [ %26, %24 ]
  %28 = getelementptr inbounds nuw i8, ptr %4, i64 16
  store ptr %28, ptr %0, align 8, !tbaa !87
  %.not67 = icmp eq i64 %.059, 0
  br i1 %.not67, label %._crit_edge, label %.lr.ph

.lr.ph:                                           ; preds = %27, %.lr.ph
  %.266 = phi ptr [ %32, %.lr.ph ], [ %.1, %27 ]
  %.05765 = phi i64 [ %30, %.lr.ph ], [ 1, %27 ]
  %.05864 = phi i64 [ %33, %.lr.ph ], [ 0, %27 ]
  %29 = tail call fastcc noundef i64 @_ZN13duckdb_yyjsonL16yyjson_imut_copyEPPNS_10yyjson_valEPPcPNS_14yyjson_mut_valE(ptr noundef %0, ptr noundef %1, ptr noundef %.266)
  %30 = add i64 %29, %.05765
  %31 = getelementptr inbounds nuw i8, ptr %.266, i64 16
  %32 = load ptr, ptr %31, align 8, !tbaa !79
  %33 = add nuw nsw i64 %.05864, 1
  %exitcond.not = icmp eq i64 %33, %.059
  br i1 %exitcond.not, label %._crit_edge.loopexit, label %.lr.ph, !llvm.loop !92

._crit_edge.loopexit:                             ; preds = %.lr.ph
  %.pre = load i64, ptr %2, align 8, !tbaa !76
  br label %._crit_edge

._crit_edge:                                      ; preds = %.thread, %._crit_edge.loopexit, %27
  %34 = phi i64 [ %5, %27 ], [ %.pre, %._crit_edge.loopexit ], [ %5, %.thread ]
  %.057.lcssa = phi i64 [ 1, %27 ], [ %30, %._crit_edge.loopexit ], [ 1, %.thread ]
  store i64 %34, ptr %4, align 8, !tbaa !73
  %35 = shl i64 %.057.lcssa, 4
  %36 = getelementptr inbounds nuw i8, ptr %4, i64 8
  store i64 %35, ptr %36, align 8, !tbaa !75
  br label %54

37:                                               ; preds = %3
  %38 = and i8 %6, 3
  %or.cond5 = icmp eq i8 %38, 1
  br i1 %or.cond5, label %39, label %49

39:                                               ; preds = %37
  %40 = load ptr, ptr %1, align 8, !tbaa !86
  %41 = lshr i64 %5, 8
  %42 = getelementptr inbounds nuw i8, ptr %2, i64 8
  %43 = load ptr, ptr %42, align 8, !tbaa !75
  tail call void @llvm.memcpy.p0.p0.i64(ptr align 1 %40, ptr align 1 %43, i64 %41, i1 false)
  %44 = getelementptr inbounds nuw i8, ptr %40, i64 %41
  store i8 0, ptr %44, align 1, !tbaa !75
  %45 = load i64, ptr %2, align 8, !tbaa !76
  store i64 %45, ptr %4, align 8, !tbaa !73
  %46 = getelementptr inbounds nuw i8, ptr %4, i64 8
  store ptr %40, ptr %46, align 8, !tbaa !75
  %47 = getelementptr inbounds nuw i8, ptr %4, i64 16
  store ptr %47, ptr %0, align 8, !tbaa !87
  %48 = getelementptr inbounds nuw i8, ptr %44, i64 1
  store ptr %48, ptr %1, align 8, !tbaa !86
  br label %54

49:                                               ; preds = %37
  store i64 %5, ptr %4, align 8, !tbaa !73
  %50 = getelementptr inbounds nuw i8, ptr %2, i64 8
  %51 = getelementptr inbounds nuw i8, ptr %4, i64 8
  %52 = load i64, ptr %50, align 8, !tbaa !75
  store i64 %52, ptr %51, align 8, !tbaa !75
  %53 = getelementptr inbounds nuw i8, ptr %4, i64 16
  store ptr %53, ptr %0, align 8, !tbaa !87
  br label %54

54:                                               ; preds = %49, %39, %._crit_edge
  %.0 = phi i64 [ %.057.lcssa, %._crit_edge ], [ 1, %39 ], [ 1, %49 ]
  ret i64 %.0
}